; Function Attrs: nounwind uwtable
define noalias noundef ptr @Gia_ManRecurDsdCof(ptr noundef %0, ptr noundef readonly captures(none) %1, i32 noundef %2) local_unnamed_addr #0 {
  %4 = getelementptr i8, ptr %1, i64 4
  %.val20 = load i32, ptr %4, align 4, !tbaa !56
  %5 = shl nsw i32 %.val20, 1
  %6 = tail call noalias dereferenceable_or_null(16) ptr @malloc(i64 noundef 16) #16
  %7 = add i32 %5, -1
  %or.cond.i = icmp ult i32 %7, 7
  %spec.store.select.i = select i1 %or.cond.i, i32 8, i32 %5
  %8 = getelementptr inbounds nuw i8, ptr %6, i64 4
  store i32 0, ptr %8, align 4, !tbaa !56
  store i32 %spec.store.select.i, ptr %6, align 8, !tbaa !62
  %.not.i = icmp eq i32 %spec.store.select.i, 0
  br i1 %.not.i, label %Vec_PtrAlloc.exit, label %9

9:                                                ; preds = %3
  %10 = sext i32 %spec.store.select.i to i64
  %11 = shl nsw i64 %10, 3
  %12 = tail call noalias ptr @malloc(i64 noundef %11) #16
  br label %Vec_PtrAlloc.exit

Vec_PtrAlloc.exit:                                ; preds = %3, %9
  %13 = phi ptr [ %12, %9 ], [ null, %3 ]
  %14 = getelementptr inbounds nuw i8, ptr %6, i64 8
  store ptr %13, ptr %14, align 8, !tbaa !58
  %15 = icmp sgt i32 %.val20, 0
  br i1 %15, label %.lr.ph, label %.critedge

.lr.ph:                                           ; preds = %Vec_PtrAlloc.exit
  %16 = getelementptr i8, ptr %1, i64 8
  br label %17

17:                                               ; preds = %.lr.ph, %Vec_PtrPush.exit28
  %18 = phi i32 [ %spec.store.select.i, %.lr.ph ], [ %77, %Vec_PtrPush.exit28 ]
  %19 = phi i32 [ 0, %.lr.ph ], [ %79, %Vec_PtrPush.exit28 ]
  %indvars.iv = phi i64 [ 0, %.lr.ph ], [ %indvars.iv.next, %Vec_PtrPush.exit28 ]
  %.val21 = load ptr, ptr %16, align 8, !tbaa !58
  %20 = getelementptr inbounds nuw ptr, ptr %.val21, i64 %indvars.iv
  %21 = load ptr, ptr %20, align 8, !tbaa !59
  %22 = tail call ptr @Cudd_bddIthVar(ptr noundef %0, i32 noundef %2) #14
  %23 = ptrtoint ptr %22 to i64
  %24 = xor i64 %23, 1
  %25 = inttoptr i64 %24 to ptr
  %26 = tail call ptr @Cudd_Cofactor(ptr noundef %0, ptr noundef %21, ptr noundef %25) #14
  tail call void @Cudd_Ref(ptr noundef %26) #14
  %27 = tail call ptr @Cudd_bddIthVar(ptr noundef %0, i32 noundef %2) #14
  %28 = tail call ptr @Cudd_Cofactor(ptr noundef %0, ptr noundef %21, ptr noundef %27) #14
  tail call void @Cudd_Ref(ptr noundef %28) #14
  %29 = icmp eq i32 %19, %18
  br i1 %29, label %30, label %Vec_PtrPush.exit

30:                                               ; preds = %17
  %31 = icmp slt i32 %18, 16
  br i1 %31, label %32, label %38

32:                                               ; preds = %30
  %33 = load ptr, ptr %14, align 8, !tbaa !58
  %.not9.i.i = icmp eq ptr %33, null
  br i1 %.not9.i.i, label %36, label %34

34:                                               ; preds = %32
  %35 = tail call dereferenceable_or_null(128) ptr @realloc(ptr noundef nonnull %33, i64 noundef 128) #15
  br label %Vec_PtrPush.exit.thread

36:                                               ; preds = %32
  %37 = tail call noalias dereferenceable_or_null(128) ptr @malloc(i64 noundef 128) #16
  br label %Vec_PtrPush.exit.thread

38:                                               ; preds = %30
  %39 = shl nuw nsw i32 %18, 1
  %40 = load ptr, ptr %14, align 8, !tbaa !58
  %.not9.i10.i = icmp eq ptr %40, null
  %41 = zext nneg i32 %39 to i64
  %42 = shl nuw nsw i64 %41, 3
  br i1 %.not9.i10.i, label %45, label %43

43:                                               ; preds = %38
  %44 = tail call ptr @realloc(ptr noundef nonnull %40, i64 noundef %42) #15
  br label %Vec_PtrPush.exit.thread

45:                                               ; preds = %38
  %46 = tail call noalias ptr @malloc(i64 noundef %42) #16
  br label %Vec_PtrPush.exit.thread

Vec_PtrPush.exit.thread:                          ; preds = %43, %45, %34, %36
  %.sink33 = phi ptr [ %35, %34 ], [ %37, %36 ], [ %44, %43 ], [ %46, %45 ]
  %.sink = phi i32 [ 16, %34 ], [ 16, %36 ], [ %39, %43 ], [ %39, %45 ]
  store ptr %.sink33, ptr %14, align 8, !tbaa !58
  store i32 %.sink, ptr %6, align 8, !tbaa !62
  %47 = or disjoint i32 %19, 1
  store i32 %47, ptr %8, align 4, !tbaa !56
  %48 = zext nneg i32 %19 to i64
  %49 = getelementptr inbounds nuw ptr, ptr %.sink33, i64 %48
  store ptr %26, ptr %49, align 8, !tbaa !59
  br label %.Vec_PtrGrow.exit11_crit_edge.i22

Vec_PtrPush.exit:                                 ; preds = %17
  %.pre.i = load ptr, ptr %14, align 8, !tbaa !58
  %50 = or disjoint i32 %19, 1
  %51 = zext nneg i32 %19 to i64
  %52 = getelementptr inbounds nuw ptr, ptr %.pre.i, i64 %51
  store ptr %26, ptr %52, align 8, !tbaa !59
  %53 = icmp eq i32 %50, %18
  br i1 %53, label %56, label %.Vec_PtrGrow.exit11_crit_edge.i22

.Vec_PtrGrow.exit11_crit_edge.i22:                ; preds = %Vec_PtrPush.exit.thread, %Vec_PtrPush.exit
  %54 = phi i32 [ %47, %Vec_PtrPush.exit.thread ], [ %50, %Vec_PtrPush.exit ]
  %55 = phi i32 [ %.sink, %Vec_PtrPush.exit.thread ], [ %18, %Vec_PtrPush.exit ]
  %.pre.i24 = load ptr, ptr %14, align 8, !tbaa !58
  br label %Vec_PtrPush.exit28

56:                                               ; preds = %Vec_PtrPush.exit
  %57 = icmp samesign ult i32 %19, 15
  br i1 %57, label %58, label %65

58:                                               ; preds = %56
  %59 = load ptr, ptr %14, align 8, !tbaa !58
  %.not9.i.i26 = icmp eq ptr %59, null
  br i1 %.not9.i.i26, label %62, label %60

60:                                               ; preds = %58
  %61 = tail call dereferenceable_or_null(128) ptr @realloc(ptr noundef nonnull %59, i64 noundef 128) #15
  br label %Vec_PtrGrow.exit.i27

62:                                               ; preds = %58
  %63 = tail call noalias dereferenceable_or_null(128) ptr @malloc(i64 noundef 128) #16
  br label %Vec_PtrGrow.exit.i27

Vec_PtrGrow.exit.i27:                             ; preds = %62, %60
  %64 = phi ptr [ %61, %60 ], [ %63, %62 ]
  store ptr %64, ptr %14, align 8, !tbaa !58
  store i32 16, ptr %6, align 8, !tbaa !62
  br label %Vec_PtrPush.exit28

65:                                               ; preds = %56
  %66 = shl nuw nsw i32 %18, 1
  %67 = load ptr, ptr %14, align 8, !tbaa !58
  %.not9.i10.i25 = icmp eq ptr %67, null
  %68 = zext nneg i32 %66 to i64
  %69 = shl nuw nsw i64 %68, 3
  br i1 %.not9.i10.i25, label %72, label %70

70:                                               ; preds = %65
  %71 = tail call ptr @realloc(ptr noundef nonnull %67, i64 noundef %69) #15
  br label %74

72:                                               ; preds = %65
  %73 = tail call noalias ptr @malloc(i64 noundef %69) #16
  br label %74

74:                                               ; preds = %72, %70
  %75 = phi ptr [ %71, %70 ], [ %73, %72 ]
  store ptr %75, ptr %14, align 8, !tbaa !58
  store i32 %66, ptr %6, align 8, !tbaa !62
  br label %Vec_PtrPush.exit28

Vec_PtrPush.exit28:                               ; preds = %.Vec_PtrGrow.exit11_crit_edge.i22, %Vec_PtrGrow.exit.i27, %74
  %76 = phi i32 [ %54, %.Vec_PtrGrow.exit11_crit_edge.i22 ], [ %50, %74 ], [ %50, %Vec_PtrGrow.exit.i27 ]
  %77 = phi i32 [ %55, %.Vec_PtrGrow.exit11_crit_edge.i22 ], [ %66, %74 ], [ 16, %Vec_PtrGrow.exit.i27 ]
  %78 = phi ptr [ %.pre.i24, %.Vec_PtrGrow.exit11_crit_edge.i22 ], [ %75, %74 ], [ %64, %Vec_PtrGrow.exit.i27 ]
  %79 = add nuw nsw i32 %19, 2
  store i32 %79, ptr %8, align 4, !tbaa !56
  %80 = zext nneg i32 %76 to i64
  %81 = getelementptr inbounds nuw ptr, ptr %78, i64 %80
  store ptr %28, ptr %81, align 8, !tbaa !59
  %indvars.iv.next = add nuw nsw i64 %indvars.iv, 1
  %.val = load i32, ptr %4, align 4, !tbaa !56
  %82 = sext i32 %.val to i64
  %83 = icmp slt i64 %indvars.iv.next, %82
  br i1 %83, label %17, label %.critedge, !llvm.loop !72

.critedge:                                        ; preds = %Vec_PtrPush.exit28, %Vec_PtrAlloc.exit
  ret ptr %6
}